target datalayout = "e-m:e-p270:32:32-p271:32:32-p272:64:64-i64:64-i128:128-f80:128-n8:16:32:64-S128"
target triple = "x86_64-pc-linux-gnu"

%struct.AVFilterContext = type { ptr, ptr, ptr, ptr, ptr, i32, ptr, ptr, i32, ptr, ptr, i32, i32, ptr, ptr, ptr, ptr, i32, ptr, i32, i32 }
%struct.rgbvec = type { float, float, float }
%struct.AVRational = type { i32, i32 }
%struct.LUT1DContext = type { ptr, ptr, i32, %struct.rgbvec, [4 x i8], i32, [3 x [65536 x float]], i32, ptr }
%struct.AVFilterLink = type { ptr, ptr, ptr, ptr, i32, i32, i32, i32, %struct.AVRational, i32, i32, i32, %struct.AVChannelLayout, %struct.AVRational, ptr, i32, %struct.AVFilterFormatsConfig, %struct.AVFilterFormatsConfig }
%struct.AVChannelLayout = type { i32, i32, %union.anon.1, ptr }
%union.anon.1 = type { i64 }
%struct.AVFilterFormatsConfig = type { ptr, ptr, ptr, ptr, ptr }
%struct.ThreadData = type { ptr, ptr }

; Function Attrs: nounwind uwtable
define internal ptr @apply_1d_lut(ptr noundef %0, ptr noundef %1) #1 {
  %3 = alloca ptr, align 8
  %4 = alloca ptr, align 8
  %5 = alloca ptr, align 8
  %6 = alloca ptr, align 8
  %7 = alloca ptr, align 8
  %8 = alloca ptr, align 8
  %9 = alloca ptr, align 8
  %10 = alloca %struct.ThreadData, align 8
  %11 = alloca i32, align 4
  store ptr %0, ptr %4, align 8, !tbaa !45
  store ptr %1, ptr %5, align 8, !tbaa !56
  call void @llvm.lifetime.start.p0(i64 8, ptr %6) #16
  %12 = load ptr, ptr %4, align 8, !tbaa !45
  %13 = getelementptr inbounds nuw %struct.AVFilterLink, ptr %12, i32 0, i32 2
  %14 = load ptr, ptr %13, align 8, !tbaa !58
  store ptr %14, ptr %6, align 8, !tbaa !4
  call void @llvm.lifetime.start.p0(i64 8, ptr %7) #16
  %15 = load ptr, ptr %6, align 8, !tbaa !4
  %16 = getelementptr inbounds nuw %struct.AVFilterContext, ptr %15, i32 0, i32 9
  %17 = load ptr, ptr %16, align 8, !tbaa !9
  store ptr %17, ptr %7, align 8, !tbaa !48
  call void @llvm.lifetime.start.p0(i64 8, ptr %8) #16
  %18 = load ptr, ptr %4, align 8, !tbaa !45
  %19 = getelementptr inbounds nuw %struct.AVFilterLink, ptr %18, i32 0, i32 2
  %20 = load ptr, ptr %19, align 8, !tbaa !58
  %21 = getelementptr inbounds nuw %struct.AVFilterContext, ptr %20, i32 0, i32 7
  %22 = load ptr, ptr %21, align 8, !tbaa !65
  %23 = getelementptr inbounds ptr, ptr %22, i64 0
  %24 = load ptr, ptr %23, align 8, !tbaa !45
  store ptr %24, ptr %8, align 8, !tbaa !45
  call void @llvm.lifetime.start.p0(i64 8, ptr %9) #16
  call void @llvm.lifetime.start.p0(i64 16, ptr %10) #16
  %25 = load ptr, ptr %5, align 8, !tbaa !56
  %26 = call i32 @av_frame_is_writable(ptr noundef %25)
  %27 = icmp ne i32 %26, 0
  br i1 %27, label %28, label %30

28:                                               ; preds = %2
  %29 = load ptr, ptr %5, align 8, !tbaa !56
  store ptr %29, ptr %9, align 8, !tbaa !56
  br label %46

30:                                               ; preds = %2
  %31 = load ptr, ptr %8, align 8, !tbaa !45
  %32 = load ptr, ptr %8, align 8, !tbaa !45
  %33 = getelementptr inbounds nuw %struct.AVFilterLink, ptr %32, i32 0, i32 6
  %34 = load i32, ptr %33, align 8, !tbaa !76
  %35 = load ptr, ptr %8, align 8, !tbaa !45
  %36 = getelementptr inbounds nuw %struct.AVFilterLink, ptr %35, i32 0, i32 7
  %37 = load i32, ptr %36, align 4, !tbaa !77
  %38 = call ptr @ff_get_video_buffer(ptr noundef %31, i32 noundef %34, i32 noundef %37)
  store ptr %38, ptr %9, align 8, !tbaa !56
  %39 = load ptr, ptr %9, align 8, !tbaa !56
  %40 = icmp ne ptr %39, null
  br i1 %40, label %42, label %41

41:                                               ; preds = %30
  call void @av_frame_free(ptr noundef %5)
  store ptr null, ptr %3, align 8
  store i32 1, ptr %11, align 4
  br label %77

42:                                               ; preds = %30
  %43 = load ptr, ptr %9, align 8, !tbaa !56
  %44 = load ptr, ptr %5, align 8, !tbaa !56
  %45 = call i32 @av_frame_copy_props(ptr noundef %43, ptr noundef %44)
  br label %46

46:                                               ; preds = %42, %28
  %47 = load ptr, ptr %5, align 8, !tbaa !56
  %48 = getelementptr inbounds nuw %struct.ThreadData, ptr %10, i32 0, i32 0
  store ptr %47, ptr %48, align 8, !tbaa !78
  %49 = load ptr, ptr %9, align 8, !tbaa !56
  %50 = getelementptr inbounds nuw %struct.ThreadData, ptr %10, i32 0, i32 1
  store ptr %49, ptr %50, align 8, !tbaa !80
  %51 = load ptr, ptr %6, align 8, !tbaa !4
  %52 = load ptr, ptr %7, align 8, !tbaa !48
  %53 = getelementptr inbounds nuw %struct.LUT1DContext, ptr %52, i32 0, i32 8
  %54 = load ptr, ptr %53, align 8, !tbaa !293
  %55 = load ptr, ptr %8, align 8, !tbaa !45
  %56 = getelementptr inbounds nuw %struct.AVFilterLink, ptr %55, i32 0, i32 7
  %57 = load i32, ptr %56, align 4, !tbaa !77
  %58 = load ptr, ptr %6, align 8, !tbaa !4
  %59 = call i32 @ff_filter_get_nb_threads(ptr noundef %58) #18
  %60 = icmp sgt i32 %57, %59
  br i1 %60, label %61, label %64

61:                                               ; preds = %46
  %62 = load ptr, ptr %6, align 8, !tbaa !4
  %63 = call i32 @ff_filter_get_nb_threads(ptr noundef %62) #18
  br label %68

64:                                               ; preds = %46
  %65 = load ptr, ptr %8, align 8, !tbaa !45
  %66 = getelementptr inbounds nuw %struct.AVFilterLink, ptr %65, i32 0, i32 7
  %67 = load i32, ptr %66, align 4, !tbaa !77
  br label %68

68:                                               ; preds = %64, %61
  %69 = phi i32 [ %63, %61 ], [ %67, %64 ]
  %70 = call i32 @ff_filter_execute(ptr noundef %51, ptr noundef %54, ptr noundef %10, ptr noundef null, i32 noundef %69)
  %71 = load ptr, ptr %9, align 8, !tbaa !56
  %72 = load ptr, ptr %5, align 8, !tbaa !56
  %73 = icmp ne ptr %71, %72
  br i1 %73, label %74, label %75

74:                                               ; preds = %68
  call void @av_frame_free(ptr noundef %5)
  br label %75

75:                                               ; preds = %74, %68
  %76 = load ptr, ptr %9, align 8, !tbaa !56
  store ptr %76, ptr %3, align 8
  store i32 1, ptr %11, align 4
  br label %77

77:                                               ; preds = %75, %41
  call void @llvm.lifetime.end.p0(i64 16, ptr %10) #16
  call void @llvm.lifetime.end.p0(i64 8, ptr %9) #16
  call void @llvm.lifetime.end.p0(i64 8, ptr %8) #16
  call void @llvm.lifetime.end.p0(i64 8, ptr %7) #16
  call void @llvm.lifetime.end.p0(i64 8, ptr %6) #16
  %78 = load ptr, ptr %3, align 8
  ret ptr %78
}

; Function Attrs: nounwind uwtable
define internal i32 @filter_frame_1d(ptr noundef %0, ptr noundef %1) #1 {
  %3 = alloca i32, align 4
  %4 = alloca ptr, align 8
  %5 = alloca ptr, align 8
  %6 = alloca ptr, align 8
  %7 = alloca ptr, align 8
  %8 = alloca i32, align 4
  store ptr %0, ptr %4, align 8, !tbaa !45
  store ptr %1, ptr %5, align 8, !tbaa !56
  call void @llvm.lifetime.start.p0(i64 8, ptr %6) #16
  %9 = load ptr, ptr %4, align 8, !tbaa !45
  %10 = getelementptr inbounds nuw %struct.AVFilterLink, ptr %9, i32 0, i32 2
  %11 = load ptr, ptr %10, align 8, !tbaa !58
  %12 = getelementptr inbounds nuw %struct.AVFilterContext, ptr %11, i32 0, i32 7
  %13 = load ptr, ptr %12, align 8, !tbaa !65
  %14 = getelementptr inbounds ptr, ptr %13, i64 0
  %15 = load ptr, ptr %14, align 8, !tbaa !45
  store ptr %15, ptr %6, align 8, !tbaa !45
  call void @llvm.lifetime.start.p0(i64 8, ptr %7) #16
  %16 = load ptr, ptr %4, align 8, !tbaa !45
  %17 = load ptr, ptr %5, align 8, !tbaa !56
  %18 = call ptr @apply_1d_lut(ptr noundef %16, ptr noundef %17)
  store ptr %18, ptr %7, align 8, !tbaa !56
  %19 = load ptr, ptr %7, align 8, !tbaa !56
  %20 = icmp ne ptr %19, null
  br i1 %20, label %22, label %21

21:                                               ; preds = %2
  store i32 -12, ptr %3, align 4
  store i32 1, ptr %8, align 4
  br label %26

22:                                               ; preds = %2
  %23 = load ptr, ptr %6, align 8, !tbaa !45
  %24 = load ptr, ptr %7, align 8, !tbaa !56
  %25 = call i32 @ff_filter_frame(ptr noundef %23, ptr noundef %24)
  store i32 %25, ptr %3, align 4
  store i32 1, ptr %8, align 4
  br label %26

26:                                               ; preds = %22, %21
  call void @llvm.lifetime.end.p0(i64 8, ptr %7) #16
  call void @llvm.lifetime.end.p0(i64 8, ptr %6) #16
  %27 = load i32, ptr %3, align 4
  ret i32 %27
}