; Function Attrs: nounwind uwtable
define internal i32 @filter_frame_1d(ptr noundef readonly captures(none) %0, ptr noundef %1) #1 {
  %3 = alloca ptr, align 8
  %4 = alloca %struct.ThreadData, align 8
  %5 = getelementptr inbounds nuw i8, ptr %0, i64 16
  %6 = load ptr, ptr %5, align 8, !tbaa !100
  %7 = getelementptr inbounds nuw i8, ptr %6, i64 56
  %8 = load ptr, ptr %7, align 8, !tbaa !107
  %9 = load ptr, ptr %8, align 8, !tbaa !78
  call void @llvm.lifetime.start.p0(i64 8, ptr nonnull %3)
  store ptr %1, ptr %3, align 8, !tbaa !116
  %10 = getelementptr inbounds nuw i8, ptr %6, i64 72
  %11 = load ptr, ptr %10, align 8, !tbaa !4
  call void @llvm.lifetime.start.p0(i64 16, ptr nonnull %4) #21
  %12 = tail call i32 @av_frame_is_writable(ptr noundef %1) #21
  %.not.i = icmp eq i32 %12, 0
  br i1 %.not.i, label %13, label %21

13:                                               ; preds = %2
  %14 = getelementptr inbounds nuw i8, ptr %9, i64 40
  %15 = load i32, ptr %14, align 8, !tbaa !118
  %16 = getelementptr inbounds nuw i8, ptr %9, i64 44
  %17 = load i32, ptr %16, align 4, !tbaa !119
  %18 = tail call ptr @ff_get_video_buffer(ptr noundef %9, i32 noundef %15, i32 noundef %17) #21
  %.not22.i = icmp eq ptr %18, null
  br i1 %.not22.i, label %.sink.split.i, label %19

19:                                               ; preds = %13
  %20 = tail call i32 @av_frame_copy_props(ptr noundef nonnull %18, ptr noundef %1) #21
  br label %21

21:                                               ; preds = %19, %2
  %.0.i = phi ptr [ %18, %19 ], [ %1, %2 ]
  store ptr %1, ptr %4, align 8, !tbaa !120
  %22 = getelementptr inbounds nuw i8, ptr %4, i64 8
  store ptr %.0.i, ptr %22, align 8, !tbaa !122
  %23 = getelementptr inbounds nuw i8, ptr %11, i64 786480
  %24 = load ptr, ptr %23, align 8, !tbaa !282
  %25 = getelementptr inbounds nuw i8, ptr %9, i64 44
  %26 = load i32, ptr %25, align 4, !tbaa !119
  %27 = tail call i32 @ff_filter_get_nb_threads(ptr noundef nonnull %6) #23
  %..i = tail call i32 @llvm.smin.i32(i32 %26, i32 %27)
  %28 = call i32 @ff_filter_execute(ptr noundef nonnull %6, ptr noundef %24, ptr noundef nonnull %4, ptr noundef null, i32 noundef %..i) #21
  %.not23.i = icmp eq ptr %.0.i, %1
  br i1 %.not23.i, label %apply_1d_lut.exit, label %.sink.split.i

.sink.split.i:                                    ; preds = %21, %13
  %.018.ph.i = phi ptr [ null, %13 ], [ %.0.i, %21 ]
  call void @av_frame_free(ptr noundef nonnull %3) #21
  br label %apply_1d_lut.exit

apply_1d_lut.exit:                                ; preds = %21, %.sink.split.i
  %.018.i = phi ptr [ %.0.i, %21 ], [ %.018.ph.i, %.sink.split.i ]
  call void @llvm.lifetime.end.p0(i64 16, ptr nonnull %4) #21
  call void @llvm.lifetime.end.p0(i64 8, ptr nonnull %3)
  %.not = icmp eq ptr %.018.i, null
  br i1 %.not, label %31, label %29

29:                                               ; preds = %apply_1d_lut.exit
  %30 = call i32 @ff_filter_frame(ptr noundef nonnull %9, ptr noundef nonnull %.018.i) #21
  br label %31

31:                                               ; preds = %apply_1d_lut.exit, %29
  %.0 = phi i32 [ %30, %29 ], [ -12, %apply_1d_lut.exit ]
  ret i32 %.0
}